target datalayout = "e-m:e-p270:32:32-p271:32:32-p272:64:64-i64:64-i128:128-f80:128-n8:16:32:64-S128"
target triple = "x86_64-pc-linux-gnu"

%struct.SurfaceDataRasInfo = type { %struct.SurfaceDataBounds, ptr, i32, i32, i32, i32, ptr, ptr, ptr, ptr, ptr, ptr, i32, %union.anon.0 }
%struct.SurfaceDataBounds = type { i32, i32, i32, i32 }
%union.anon.0 = type { ptr, [56 x i8] }
%struct._CompositeInfo = type { i32, %union.anon.1, i32 }
%union.anon.1 = type { float }

; Function Attrs: nounwind uwtable
define hidden void @Any4ByteXorRect(ptr noundef %0, i32 noundef %1, i32 noundef %2, i32 noundef %3, i32 noundef %4, i32 noundef %5, ptr noundef %6, ptr noundef %7) #0 {
  %9 = alloca ptr, align 8
  %10 = alloca i32, align 4
  %11 = alloca i32, align 4
  %12 = alloca i32, align 4
  %13 = alloca i32, align 4
  %14 = alloca i32, align 4
  %15 = alloca ptr, align 8
  %16 = alloca ptr, align 8
  %17 = alloca i32, align 4
  %18 = alloca i32, align 4
  %19 = alloca i8, align 1
  %20 = alloca i8, align 1
  %21 = alloca i8, align 1
  %22 = alloca i8, align 1
  %23 = alloca i8, align 1
  %24 = alloca i8, align 1
  %25 = alloca i8, align 1
  %26 = alloca i8, align 1
  %27 = alloca i8, align 1
  %28 = alloca i8, align 1
  %29 = alloca i8, align 1
  %30 = alloca i8, align 1
  %31 = alloca ptr, align 8
  %32 = alloca i32, align 4
  %33 = alloca i32, align 4
  %34 = alloca i32, align 4
  %35 = alloca i32, align 4
  store ptr %0, ptr %9, align 8
  store i32 %1, ptr %10, align 4
  store i32 %2, ptr %11, align 4
  store i32 %3, ptr %12, align 4
  store i32 %4, ptr %13, align 4
  store i32 %5, ptr %14, align 4
  store ptr %6, ptr %15, align 8
  store ptr %7, ptr %16, align 8
  %36 = load ptr, ptr %16, align 8
  %37 = getelementptr inbounds %struct._CompositeInfo, ptr %36, i32 0, i32 1
  %38 = load i32, ptr %37, align 4
  store i32 %38, ptr %17, align 4
  %39 = load ptr, ptr %16, align 8
  %40 = getelementptr inbounds %struct._CompositeInfo, ptr %39, i32 0, i32 2
  %41 = load i32, ptr %40, align 4
  store i32 %41, ptr %18, align 4
  %42 = load ptr, ptr %9, align 8
  %43 = getelementptr inbounds %struct.SurfaceDataRasInfo, ptr %42, i32 0, i32 4
  %44 = load i32, ptr %43, align 8
  store i32 %44, ptr %32, align 4
  %45 = load i32, ptr %13, align 4
  %46 = load i32, ptr %11, align 4
  %47 = sub nsw i32 %45, %46
  store i32 %47, ptr %33, align 4
  %48 = load i32, ptr %12, align 4
  %49 = load i32, ptr %10, align 4
  %50 = sub nsw i32 %48, %49
  store i32 %50, ptr %34, align 4
  %51 = load ptr, ptr %9, align 8
  %52 = getelementptr inbounds %struct.SurfaceDataRasInfo, ptr %51, i32 0, i32 1
  %53 = load ptr, ptr %52, align 8
  %54 = ptrtoint ptr %53 to i64
  %55 = load i32, ptr %11, align 4
  %56 = sext i32 %55 to i64
  %57 = load i32, ptr %32, align 4
  %58 = sext i32 %57 to i64
  %59 = mul nsw i64 %56, %58
  %60 = load i32, ptr %10, align 4
  %61 = sext i32 %60 to i64
  %62 = mul nsw i64 %61, 4
  %63 = add nsw i64 %59, %62
  %64 = add nsw i64 %54, %63
  %65 = inttoptr i64 %64 to ptr
  store ptr %65, ptr %31, align 8
  br label %66

66:                                               ; preds = %8
  %67 = load i32, ptr %17, align 4
  %68 = trunc i32 %67 to i8
  store i8 %68, ptr %19, align 1
  %69 = load i32, ptr %17, align 4
  %70 = ashr i32 %69, 8
  %71 = trunc i32 %70 to i8
  store i8 %71, ptr %20, align 1
  %72 = load i32, ptr %17, align 4
  %73 = ashr i32 %72, 16
  %74 = trunc i32 %73 to i8
  store i8 %74, ptr %21, align 1
  %75 = load i32, ptr %17, align 4
  %76 = ashr i32 %75, 24
  %77 = trunc i32 %76 to i8
  store i8 %77, ptr %22, align 1
  br label %78

78:                                               ; preds = %66
  br label %79

79:                                               ; preds = %78
  %80 = load i32, ptr %14, align 4
  %81 = trunc i32 %80 to i8
  store i8 %81, ptr %23, align 1
  %82 = load i32, ptr %14, align 4
  %83 = ashr i32 %82, 8
  %84 = trunc i32 %83 to i8
  store i8 %84, ptr %24, align 1
  %85 = load i32, ptr %14, align 4
  %86 = ashr i32 %85, 16
  %87 = trunc i32 %86 to i8
  store i8 %87, ptr %25, align 1
  %88 = load i32, ptr %14, align 4
  %89 = ashr i32 %88, 24
  %90 = trunc i32 %89 to i8
  store i8 %90, ptr %26, align 1
  br label %91

91:                                               ; preds = %79
  br label %92

92:                                               ; preds = %91
  %93 = load i32, ptr %18, align 4
  %94 = trunc i32 %93 to i8
  store i8 %94, ptr %27, align 1
  %95 = load i32, ptr %18, align 4
  %96 = lshr i32 %95, 8
  %97 = trunc i32 %96 to i8
  store i8 %97, ptr %28, align 1
  %98 = load i32, ptr %18, align 4
  %99 = lshr i32 %98, 16
  %100 = trunc i32 %99 to i8
  store i8 %100, ptr %29, align 1
  %101 = load i32, ptr %18, align 4
  %102 = lshr i32 %101, 24
  %103 = trunc i32 %102 to i8
  store i8 %103, ptr %30, align 1
  br label %104

104:                                              ; preds = %92
  br label %105

105:                                              ; preds = %197, %104
  store i32 0, ptr %35, align 4
  br label %106

106:                                              ; preds = %185, %105
  br label %107

107:                                              ; preds = %106
  %108 = load i8, ptr %23, align 1
  %109 = zext i8 %108 to i32
  %110 = load i8, ptr %19, align 1
  %111 = zext i8 %110 to i32
  %112 = xor i32 %109, %111
  %113 = load i8, ptr %27, align 1
  %114 = zext i8 %113 to i32
  %115 = xor i32 %114, -1
  %116 = and i32 %112, %115
  %117 = load ptr, ptr %31, align 8
  %118 = load i32, ptr %35, align 4
  %119 = mul i32 4, %118
  %120 = add i32 %119, 0
  %121 = zext i32 %120 to i64
  %122 = getelementptr inbounds i8, ptr %117, i64 %121
  %123 = load i8, ptr %122, align 1
  %124 = zext i8 %123 to i32
  %125 = xor i32 %124, %116
  %126 = trunc i32 %125 to i8
  store i8 %126, ptr %122, align 1
  %127 = load i8, ptr %24, align 1
  %128 = zext i8 %127 to i32
  %129 = load i8, ptr %20, align 1
  %130 = zext i8 %129 to i32
  %131 = xor i32 %128, %130
  %132 = load i8, ptr %28, align 1
  %133 = zext i8 %132 to i32
  %134 = xor i32 %133, -1
  %135 = and i32 %131, %134
  %136 = load ptr, ptr %31, align 8
  %137 = load i32, ptr %35, align 4
  %138 = mul i32 4, %137
  %139 = add i32 %138, 1
  %140 = zext i32 %139 to i64
  %141 = getelementptr inbounds i8, ptr %136, i64 %140
  %142 = load i8, ptr %141, align 1
  %143 = zext i8 %142 to i32
  %144 = xor i32 %143, %135
  %145 = trunc i32 %144 to i8
  store i8 %145, ptr %141, align 1
  %146 = load i8, ptr %25, align 1
  %147 = zext i8 %146 to i32
  %148 = load i8, ptr %21, align 1
  %149 = zext i8 %148 to i32
  %150 = xor i32 %147, %149
  %151 = load i8, ptr %29, align 1
  %152 = zext i8 %151 to i32
  %153 = xor i32 %152, -1
  %154 = and i32 %150, %153
  %155 = load ptr, ptr %31, align 8
  %156 = load i32, ptr %35, align 4
  %157 = mul i32 4, %156
  %158 = add i32 %157, 2
  %159 = zext i32 %158 to i64
  %160 = getelementptr inbounds i8, ptr %155, i64 %159
  %161 = load i8, ptr %160, align 1
  %162 = zext i8 %161 to i32
  %163 = xor i32 %162, %154
  %164 = trunc i32 %163 to i8
  store i8 %164, ptr %160, align 1
  %165 = load i8, ptr %26, align 1
  %166 = zext i8 %165 to i32
  %167 = load i8, ptr %22, align 1
  %168 = zext i8 %167 to i32
  %169 = xor i32 %166, %168
  %170 = load i8, ptr %30, align 1
  %171 = zext i8 %170 to i32
  %172 = xor i32 %171, -1
  %173 = and i32 %169, %172
  %174 = load ptr, ptr %31, align 8
  %175 = load i32, ptr %35, align 4
  %176 = mul i32 4, %175
  %177 = add i32 %176, 3
  %178 = zext i32 %177 to i64
  %179 = getelementptr inbounds i8, ptr %174, i64 %178
  %180 = load i8, ptr %179, align 1
  %181 = zext i8 %180 to i32
  %182 = xor i32 %181, %173
  %183 = trunc i32 %182 to i8
  store i8 %183, ptr %179, align 1
  br label %184

184:                                              ; preds = %107
  br label %185

185:                                              ; preds = %184
  %186 = load i32, ptr %35, align 4
  %187 = add i32 %186, 1
  store i32 %187, ptr %35, align 4
  %188 = load i32, ptr %34, align 4
  %189 = icmp ult i32 %187, %188
  br i1 %189, label %106, label %190, !llvm.loop !16

190:                                              ; preds = %185
  %191 = load ptr, ptr %31, align 8
  %192 = ptrtoint ptr %191 to i64
  %193 = load i32, ptr %32, align 4
  %194 = sext i32 %193 to i64
  %195 = add nsw i64 %192, %194
  %196 = inttoptr i64 %195 to ptr
  store ptr %196, ptr %31, align 8
  br label %197

197:                                              ; preds = %190
  %198 = load i32, ptr %33, align 4
  %199 = add i32 %198, -1
  store i32 %199, ptr %33, align 4
  %200 = icmp ugt i32 %199, 0
  br i1 %200, label %105, label %201, !llvm.loop !17

201:                                              ; preds = %197
  ret void
}