; Function Attrs: nofree norecurse nosync nounwind memory(readwrite, inaccessiblemem: none) uwtable
define hidden void @Any4ByteXorRect(ptr nocapture noundef readonly %0, i32 noundef %1, i32 noundef %2, i32 noundef %3, i32 noundef %4, i32 noundef %5, ptr nocapture readnone %6, ptr nocapture noundef readonly %7) #2 {
  %9 = getelementptr inbounds i8, ptr %7, i64 4
  %10 = load i32, ptr %9, align 4
  %11 = getelementptr inbounds i8, ptr %7, i64 8
  %12 = load i32, ptr %11, align 4
  %13 = getelementptr inbounds i8, ptr %0, i64 32
  %14 = load i32, ptr %13, align 8
  %15 = sub nsw i32 %4, %2
  %16 = sub i32 %3, %1
  %17 = getelementptr inbounds i8, ptr %0, i64 16
  %18 = load ptr, ptr %17, align 8
  %19 = ptrtoint ptr %18 to i64
  %20 = sext i32 %2 to i64
  %21 = sext i32 %14 to i64
  %22 = mul nsw i64 %21, %20
  %23 = sext i32 %1 to i64
  %24 = shl nsw i64 %23, 2
  %25 = add nsw i64 %22, %24
  %26 = add nsw i64 %25, %19
  %27 = xor i32 %10, %5
  %28 = xor i32 %12, -1
  %29 = and i32 %27, %28
  %30 = trunc i32 %29 to i8
  %31 = lshr i32 %29, 8
  %32 = trunc i32 %31 to i8
  %33 = lshr i32 %29, 16
  %34 = trunc i32 %33 to i8
  %35 = lshr i32 %29, 24
  %36 = trunc nuw i32 %35 to i8
  %umax = tail call i32 @llvm.umax.i32(i32 %16, i32 1)
  %wide.trip.count = zext i32 %umax to i64
  br label %37

37:                                               ; preds = %60, %8
  %.048 = phi i32 [ %15, %8 ], [ %62, %60 ]
  %.047.in = phi i64 [ %26, %8 ], [ %61, %60 ]
  %.047 = inttoptr i64 %.047.in to ptr
  br label %38

38:                                               ; preds = %38, %37
  %indvars.iv = phi i64 [ %indvars.iv.next, %38 ], [ 0, %37 ]
  %39 = trunc nuw i64 %indvars.iv to i32
  %40 = shl i32 %39, 2
  %41 = zext i32 %40 to i64
  %42 = getelementptr inbounds i8, ptr %.047, i64 %41
  %43 = load i8, ptr %42, align 1
  %44 = xor i8 %43, %30
  store i8 %44, ptr %42, align 1
  %45 = or disjoint i32 %40, 1
  %46 = zext i32 %45 to i64
  %47 = getelementptr inbounds i8, ptr %.047, i64 %46
  %48 = load i8, ptr %47, align 1
  %49 = xor i8 %48, %32
  store i8 %49, ptr %47, align 1
  %50 = or disjoint i32 %40, 2
  %51 = zext i32 %50 to i64
  %52 = getelementptr inbounds i8, ptr %.047, i64 %51
  %53 = load i8, ptr %52, align 1
  %54 = xor i8 %53, %34
  store i8 %54, ptr %52, align 1
  %55 = or disjoint i32 %40, 3
  %56 = zext i32 %55 to i64
  %57 = getelementptr inbounds i8, ptr %.047, i64 %56
  %58 = load i8, ptr %57, align 1
  %59 = xor i8 %58, %36
  store i8 %59, ptr %57, align 1
  %indvars.iv.next = add nuw nsw i64 %indvars.iv, 1
  %exitcond.not = icmp eq i64 %indvars.iv.next, %wide.trip.count
  br i1 %exitcond.not, label %60, label %38, !llvm.loop !16

60:                                               ; preds = %38
  %61 = add nsw i64 %.047.in, %21
  %62 = add i32 %.048, -1
  %.not = icmp eq i32 %62, 0
  br i1 %.not, label %63, label %37, !llvm.loop !17

63:                                               ; preds = %60
  ret void
}